(dp0
VlastCheck
p1
F1694469369.5703456
sVdontRemindVersion
p2
V2023.2
p3
sVpendingUpdateFile
p4
NsVpendingUpdateVersion
p5
NsVpendingUpdateAPIVersion
p6
(I0
I0
I0
tp7
sVpendingUpdateBackCompatToAPIVersion
p8
g7
s.