(dp0
VlastCheck
p1
F1692906430.5570827
sVdontRemindVersion
p2
NsVpendingUpdateFile
p3
NsVpendingUpdateVersion
p4
NsVpendingUpdateAPIVersion
p5
(I0
I0
I0
tp6
sVpendingUpdateBackCompatToAPIVersion
p7
g6
s.